; Function Attrs: mustprogress uwtable
define dso_local noundef zeroext i1 @_ZN4Luau13Instantiation14ignoreChildrenEPKNS_4TypeE(ptr noundef nonnull readonly align 8 captures(none) dereferenceable(1040) %0, ptr noundef %1) unnamed_addr #2 align 2 {
  %3 = getelementptr inbounds nuw i8, ptr %0, i64 144
  %4 = load ptr, ptr %3, align 8, !tbaa !69
  %5 = tail call noundef ptr @_ZNK4Luau6TxnLog7pendingEPKNS_4TypeE(ptr noundef nonnull align 8 dereferenceable(128) %4, ptr noundef %1)
  %.not.i = icmp eq ptr %5, null
  br i1 %.not.i, label %8, label %6

6:                                                ; preds = %2
  %7 = tail call noundef ptr @_ZN4Luau9asMutableEPKNS_4TypeE(ptr noundef nonnull %5)
  %.not.i.i.i.i = icmp eq ptr %7, null
  br i1 %.not.i.i.i.i, label %12, label %_ZN4Luau10getMutableINS_12FunctionTypeEEEPT_PNS_11PendingTypeE.exit.sink.split.i

8:                                                ; preds = %2
  %9 = tail call noundef ptr @_ZN4Luau9asMutableEPKNS_4TypeE(ptr noundef %1)
  %.not.i.i.i = icmp eq ptr %9, null
  br i1 %.not.i.i.i, label %12, label %_ZN4Luau10getMutableINS_12FunctionTypeEEEPT_PNS_11PendingTypeE.exit.sink.split.i

_ZN4Luau10getMutableINS_12FunctionTypeEEEPT_PNS_11PendingTypeE.exit.sink.split.i: ; preds = %8, %6
  %.sink.i = phi ptr [ %7, %6 ], [ %9, %8 ]
  %10 = load i32, ptr %.sink.i, align 8, !tbaa !70
  %11 = icmp eq i32 %10, 8
  br i1 %11, label %_ZNK4Luau6TxnLog10getMutableINS_12FunctionTypeEPKNS_4TypeEEEPT_T0_.exit, label %12

12:                                               ; preds = %6, %8, %_ZN4Luau10getMutableINS_12FunctionTypeEEEPT_PNS_11PendingTypeE.exit.sink.split.i
  %.not.i.i = icmp eq ptr %1, null
  br i1 %.not.i.i, label %_ZNK4Luau6TxnLog10getMutableINS_12FunctionTypeEPKNS_4TypeEEEPT_T0_.exit, label %13

13:                                               ; preds = %12
  %14 = load i32, ptr %1, align 8, !tbaa !70
  %15 = icmp eq i32 %14, 11
  br label %_ZNK4Luau6TxnLog10getMutableINS_12FunctionTypeEPKNS_4TypeEEEPT_T0_.exit

_ZNK4Luau6TxnLog10getMutableINS_12FunctionTypeEPKNS_4TypeEEEPT_T0_.exit: ; preds = %13, %12, %_ZN4Luau10getMutableINS_12FunctionTypeEEEPT_PNS_11PendingTypeE.exit.sink.split.i
  %.0 = phi i1 [ true, %_ZN4Luau10getMutableINS_12FunctionTypeEEEPT_PNS_11PendingTypeE.exit.sink.split.i ], [ %15, %13 ], [ false, %12 ]
  ret i1 %.0
}